ccopy_reg
_reconstructor
p0
(cPerceptronAlgos
AvgPerceptron
p1
c__builtin__
object
p2
Ntp3
Rp4
(dp5
S'_w'
p6
(dp7
I1
F-7.186977999999993
sI2
F-4.0223529999999865
sI3
F0.1741990000000313
sI4
F-1.5938130000000172
sI5
F6.676002000000005
sI6
F12.841179999999987
sI7
F-7.1697169999999915
sI8
F1.1630749999999654
sI9
F-3.8533020000000047
sI10
F-9.245261999999997
sI11
F1.4764869999999997
sI12
F3.436704000000007
sI13
F-3.410221000000001
sI14
F-8.638009
sI15
F-5.118088999999991
sI16
F11.741240999999965
sI17
F-3.3208770000000105
sI18
F0.2996610000000041
sI19
F-9.511822000000018
sI20
F0.773002000000014
sI21
F3.9605100000000073
sI22
F1.2041930000000118
sI23
F-0.9896750000000147
sI24
F-7.0715099999999955
sI25
F-0.6870199999999895
sI26
F9.397620000000018
sI27
F5.3933219999999915
sI28
F4.653054000000003
sI29
F-2.91554400000001
sI30
F-0.10952799999997803
sI31
F17.215440000000015
sI32
F5.357570000000009
sI33
F-4.4239150000000045
sI34
F4.115032000000007
sI35
F2.239985999999995
sI36
F-1.212915999999994
sI37
F-3.6093550000000203
sI38
F1.7380900000000121
sI39
F4.922390999999981
sI40
F11.165968000000003
sI41
F-0.8880319999999806
sI42
F8.587436000000032
sI43
F-2.102513000000016
sI44
F-3.476995999999982
sI45
F-3.1986819999999914
sI46
F11.08299899999999
sI47
F-0.47022000000001296
sI48
F-5.525010000000045
sI49
F3.351723999999974
sI50
F4.873130999999995
sI51
F9.438307000000007
sI52
F9.232406999999993
sI53
F-9.212854000000004
sI54
F-8.137695000000004
sI55
F0.49409400000000825
sI56
F5.138490999999989
sI57
F2.130936000000013
sI58
F4.082594999999998
sI59
F-0.6975149999999941
sI60
F-1.3022300000000249
sI61
F-1.91610599999999
sI62
F-0.4190880000000228
sI63
F10.64082099999997
sI64
F7.193668000000013
sI65
F4.282896999999995
sI66
F4.8066330000000175
sI67
F-6.950138999999987
sI68
F-9.96708600000001
sI69
F-6.41359699999999
sI70
F-0.46840100000002627
sI71
F-3.2173620000000227
sI72
F0.7598950000000255
sI73
F2.7539580000000004
sI74
F-10.30184500000002
sI75
F3.5389220000000123
sI76
F2.5960849999999938
sI77
F-0.36987999999998533
sI78
F1.4890489999999934
sI79
F-0.644355000000009
sI80
F-4.184484000000007
sI81
F1.8807110000000007
sI82
F-2.3789179999999766
sI83
F3.31460400000001
sI84
F0.955753000000006
sI85
F-8.909751000000021
sI86
F1.8816849999999918
sI87
F-7.0821499999999915
sI88
F2.777843000000002
sI89
F-11.42596800000001
sI90
F-4.203908000000007
sI91
F11.951585999999985
sI92
F3.436385999999969
sI93
F5.330045000000003
sI94
F6.048149000000002
ssS'_iterations'
p8
I5
sS'_learning_rate'
p9
F1.0
sS'_finalw'
p10
(dp11
I1
F7278.788637000064
sI2
F7188.545396000036
sI3
F-2894.030193999943
sI4
F-6390.885924000062
sI5
F6793.565334000017
sI6
F-2551.0930930000454
sI7
F-8439.377933999951
sI8
F-23830.851483000166
sI9
F18408.695618000063
sI10
F-10635.528836999983
sI11
F-14224.115814000026
sI12
F21823.14375199996
sI13
F-14499.090696999925
sI14
F-75.70927699996527
sI15
F-1718.4147039999891
sI16
F15534.350867999949
sI17
F-5493.860872000009
sI18
F17133.079916000013
sI19
F-7405.065188000038
sI20
F1342.615590000022
sI21
F12716.561259000038
sI22
F-63.850745999968346
sI23
F-8428.585930000036
sI24
F-9105.39031199998
sI25
F-540.6644219999878
sI26
F19804.879047000115
sI27
F10619.218753000036
sI28
F9796.03798699999
sI29
F-9825.148430999978
sI30
F9942.179802000092
sI31
F14931.345012000013
sI32
F7641.579150000029
sI33
F-2112.358900000014
sI34
F-2367.055490000007
sI35
F9070.157911000015
sI36
F6153.642128000023
sI37
F-15522.131780000092
sI38
F-3216.8253299999515
sI39
F-9472.793275000027
sI40
F8395.475913999951
sI41
F-752.9591039999385
sI42
F7708.842042000081
sI43
F-1062.8671230000418
sI44
F10991.186896000028
sI45
F-21557.49554499988
sI46
F15711.878535999991
sI47
F-13817.115887000093
sI48
F-23242.749060000027
sI49
F21009.761897999986
sI50
F899.9829450000015
sI51
F-3278.4539780000046
sI52
F-5937.751125999983
sI53
F-7052.183123000019
sI54
F-9725.666301000005
sI55
F-807.4146379999952
sI56
F7157.851742999971
sI57
F-3616.326295999961
sI58
F-5339.475965000002
sI59
F-509.3206370000094
sI60
F-10918.01237400016
sI61
F674.1547570000301
sI62
F7838.440667999971
sI63
F24079.295003
sI64
F-4467.096027999959
sI65
F-8674.986823000061
sI66
F-7299.444184999942
sI67
F-8899.156449999919
sI68
F-8964.85208000004
sI69
F-9858.127439999987
sI70
F3010.784264999951
sI71
F-10237.246255000015
sI72
F6011.142009000028
sI73
F16741.888675999955
sI74
F-9237.58603199994
sI75
F13332.485127000036
sI76
F-7149.7870619999685
sI77
F-34145.552273999885
sI78
F-2467.070712000045
sI79
F-1686.456954000032
sI80
F12267.976794999984
sI81
F6939.506682000014
sI82
F-11795.577261999973
sI83
F3615.2644090000513
sI84
F24017.938832000098
sI85
F-14016.942781000014
sI86
F6194.864450999972
sI87
F-7120.715361999995
sI88
F4161.574715999993
sI89
F-16736.48297099998
sI90
F-6460.41429400001
sI91
F2641.126171999987
sI92
F-11278.854650000118
sI93
F6406.8313610000105
sI94
F1796.242519000006
ssb.