ccopy_reg
_reconstructor
p0
(cPegasos
Pegasos
p1
c__builtin__
object
p2
Ntp3
Rp4
(dp5
S'_w'
p6
(dp7
I1
F24.000000000000377
sI2
F144.00000000000108
sI3
F-2052.000000000001
sI4
F-3.6401770486804704e-15
sI5
F2.6666666399999968
sI6
F-402.88891652000075
sI7
F-924.1684989519995
sI8
F-279.7778184799993
sI9
F-1535.303096108001
sI10
F1137.0370220000007
sI11
F1512.4444468399959
sI12
F-657.3333153999978
sI13
F2556.00004468
sI14
F1126.2222377999979
sI15
F-5383.111111279996
sI16
F4256.888885639987
sI17
F597.3334110000001
sI18
F-289.4009278000001
sI19
F1573.274164400001
ssS'_iterations'
p8
I5
sS'_learning_rate'
p9
F1.0
sS'_lambda'
p10
F0.0001
sb.