ccopy_reg
_reconstructor
p0
(cPerceptronAlgos
Perceptron
p1
c__builtin__
object
p2
Ntp3
Rp4
(dp5
S'_w'
p6
(dp7
I1
F-0.883118
sI2
F0.21608699999999958
sI3
F0.25602199999999997
sI4
F-0.3434060000000001
sI5
F-5.0
sI6
F-4.0
sI7
F-4.0
sI8
F5.0
sI9
F6.0
sI10
F5.0
ssS'_iterations'
p8
I5
sS'_learning_rate'
p9
F1.0
sb.