ccopy_reg
_reconstructor
p0
(cPerceptronAlgos
AvgPerceptron
p1
c__builtin__
object
p2
Ntp3
Rp4
(dp5
S'_w'
p6
(dp7
I1
F-25.0
sI2
F-47.69999999999946
sI3
F169.5499999999999
sI4
F24.0
sI5
F24.0
sI6
F-16.0
sI7
F-80.0
sI8
F882.4650000000014
sI9
F-415.0
sI10
F117.0
sI11
F1081.0
sI12
F28.0
sI13
F-85.0
sI14
F-781.0
sI15
F5939.0
sI16
F-31.0
sI17
F-85.0
sI18
F-85.0
sI19
F-10.0
sI20
F-173.0
sI21
F-84.0
sI22
F29.0
sI23
F-66.0
sI24
F-63.0
sI25
F-61.0
sI26
F-5.0
sI27
F85.0
sI28
F-8.0
sI29
F2.0
sI30
F40.0
sI31
F8.0
sI32
F-2.0
sI33
F359.0
sI34
F-8.0
sI35
F7.0
sI36
F25.0
sI37
F-35.0
sI38
F5.0
sI39
F55.0
sI40
F1.0
sI41
F8.0
sI42
F15.0
sI43
F-9.0
sI44
F5.0
sI45
F5.0
sI46
I0
ssS'_iterations'
p8
I5
sS'_learning_rate'
p9
F1.0
sS'_finalw'
p10
(dp11
I1
F-34054.0
sI2
F-315190.5900000015
sI3
F178933.13999999966
sI4
F31511.0
sI5
F31511.0
sI6
F-29124.0
sI7
F-115605.0
sI8
F1239272.3300000106
sI9
F-570278.0
sI10
F162612.0
sI11
F1509594.0
sI12
F30557.0
sI13
F-115735.0
sI14
F-1090041.0
sI15
F7912257.0
sI16
F-48354.0
sI17
F-119634.0
sI18
F-119634.0
sI19
F-11113.0
sI20
F-245020.0
sI21
F-112965.0
sI22
F33327.0
sI23
F-101202.0
sI24
F-97583.0
sI25
F-81736.0
sI26
F-7120.0
sI27
F122962.0
sI28
F-8252.0
sI29
F5448.0
sI30
F52498.0
sI31
F18135.0
sI32
F-3379.0
sI33
F487870.0
sI34
F-11483.0
sI35
F8234.0
sI36
F33517.0
sI37
F-45558.0
sI38
F6065.0
sI39
F73124.0
sI40
F1527.0
sI41
F14487.0
sI42
F21480.0
sI43
F-10138.0
sI44
F5715.0
sI45
F5715.0
sI46
I0
ssb.