ccopy_reg
_reconstructor
p0
(cPerceptronAlgos
AvgPerceptron
p1
c__builtin__
object
p2
Ntp3
Rp4
(dp5
S'_w'
p6
(dp7
I1
F0.07099999999999884
sI2
F-4.1044
sI3
F-2.5852000000000013
sI4
F1.3970000000000005
sI5
F-2.5222000000000016
sI6
F-3.8433999999999977
sI7
F-9.172599999999992
sI8
F-2.361399999999998
sI9
F-5.041799999999995
sI10
F-2.6573999999999938
sI11
F-5.0413999999999985
sI12
F-3.6858000000000017
sI13
F-2.1461999999999986
sI14
F-0.5716000000000002
sI15
F1.0486000000000004
sI16
F0.9072000000000001
sI17
F-2.440599999999998
sI18
F0.07960000000000034
sI19
F1.3310000000000024
sI20
F-1.9000000000000008
sI21
F2.0641999999999987
sI22
F3.5771999999999995
sI23
F4.466799999999999
sI24
F2.1990000000000003
sI25
F-0.47419999999999896
sI26
F0.648599999999998
sI27
F-0.45179999999999987
sI28
F-1.4437999999999998
sI29
F3.109999999999998
sI30
F2.766800000000001
sI31
F1.795599999999998
sI32
F1.5071999999999977
sI33
F-2.7940000000000005
sI34
F-3.652200000000001
sI35
F-3.3753999999999995
sI36
F-3.4165999999999985
sI37
F7.952199999999995
sI38
F1.7958000000000003
sI39
F-8.483400000000003
sI40
F-3.871000000000001
sI41
F-2.551400000000003
sI42
F2.972399999999999
sI43
F1.6289999999999996
sI44
F-3.2794
sI45
F-5.2874
sI46
F-0.08160000000000112
sI47
F2.1584000000000003
sI48
F-2.479200000000001
sI49
F-1.4909999999999983
sI50
F-3.167800000000004
sI51
F-7.5130000000000035
sI52
F-1.4863999999999988
sI53
F-1.3048000000000008
sI54
F4.630200000000001
sI55
F1.8916000000000022
sI56
F-1.3810000000000016
sI57
F-0.7346
sI58
F0.8351999999999999
sI59
F-2.025200000000002
sI60
F-3.2009999999999987
sI61
F-1.9139999999999995
sI62
F-2.8485999999999976
sI63
F-6.337600000000004
sI64
F-0.7436000000000014
sI65
F-2.771999999999998
sI66
F-3.3619999999999988
sI67
F-3.853400000000001
sI68
F-1.8346000000000018
sI69
F12.427999999999995
sI70
F1.8711999999999989
sI71
F-6.2285999999999895
sI72
F-9.616199999999996
sI73
F-14.085200000000007
sI74
F-10.50979999999998
sI75
F-10.6188
sI76
F-10.862000000000007
sI77
F-0.30379999999999785
sI78
F3.6311999999999998
sI79
F6.832999999999999
sI80
F5.191799999999997
sI81
F-4.795400000000003
sI82
F-5.367999999999999
sI83
F-6.466400000000002
sI84
F-5.1146
sI85
F-0.031199999999997674
sI86
F4.721999999999998
sI87
F0.1784000000000005
sI88
F-1.1363999999999999
sI89
F-0.6986000000000003
sI90
F-5.0876
sI91
F-3.923200000000002
sI92
F-0.7077999999999994
sI93
F0.43820000000000225
sI94
F0.7155999999999998
sI95
F5.8196
sI96
F5.752600000000002
sI97
F-5.2668000000000035
sI98
F-2.9094
sI99
F-3.3790000000000013
sI100
F0.6666
sI101
F11.679000000000014
sI102
F2.3739999999999997
sI103
F-5.793400000000007
sI104
F-6.8975999999999935
sI105
F-20.574600000000014
sI106
F-29.709599999999995
sI107
F-26.3648
sI108
F-13.678600000000008
sI109
F6.578400000000001
sI110
F12.549599999999998
sI111
F7.421200000000007
sI112
F6.086999999999998
sI113
F2.755200000000004
sI114
F1.2186000000000023
sI115
F-2.6636000000000046
sI116
F-6.813999999999998
sI117
F4.4022
sI118
F9.544999999999987
sI119
F8.46499999999999
sI120
F2.831600000000001
sI121
F3.3449999999999953
sI122
F6.379399999999997
sI123
F3.2546
sI124
F-4.8054000000000014
sI125
F-2.9740000000000015
sI126
F-6.2992
sI127
F-1.1439999999999992
sI128
F-0.4690000000000007
sI129
F-4.6649999999999965
sI130
F-3.0097999999999976
sI131
F-2.7939999999999996
sI132
F0.30419999999999797
sI133
F12.0108
sI134
F4.181599999999998
sI135
F2.134600000000003
sI136
F-4.021599999999998
sI137
F-21.880599999999998
sI138
F-24.816400000000005
sI139
F-21.43819999999999
sI140
F-19.360199999999974
sI141
F-6.875599999999993
sI142
F-3.8154000000000017
sI143
F2.1841999999999944
sI144
F2.462800000000009
sI145
F1.4313999999999971
sI146
F-0.45740000000000114
sI147
F-1.6936000000000007
sI148
F-4.5760000000000005
sI149
F8.412000000000004
sI150
F7.213400000000006
sI151
F1.1414000000000002
sI152
F-13.350000000000001
sI153
F-3.6420000000000026
sI154
F7.894199999999999
sI155
F12.278400000000001
sI156
F2.7711999999999946
sI157
F-6.197999999999992
sI158
F-12.027600000000009
sI159
F-11.405800000000005
sI160
F-8.6542
sI161
F-4.232
sI162
F-2.9322000000000017
sI163
F4.1312000000000015
sI164
F3.9909999999999983
sI165
F19.20400000000002
sI166
F24.194400000000016
sI167
F17.692999999999998
sI168
F-2.520200000000002
sI169
F-16.744400000000006
sI170
F-21.317200000000014
sI171
F-19.612600000000008
sI172
F-15.858999999999988
sI173
F-7.8302000000000085
sI174
F-5.105600000000005
sI175
F7.214000000000007
sI176
F9.645200000000008
sI177
F10.905400000000002
sI178
F8.530800000000003
sI179
F2.141799999999998
sI180
F-5.502600000000003
sI181
F-3.8141999999999996
sI182
F8.721000000000004
sI183
F7.137800000000002
sI184
F-4.386399999999997
sI185
F-4.804400000000002
sI186
F6.3598
sI187
F11.324799999999996
sI188
F2.294600000000001
sI189
F-3.2611999999999974
sI190
F-6.216600000000008
sI191
F-8.484400000000006
sI192
F-8.1188
sI193
F-2.9158000000000026
sI194
F-3.614399999999999
sI195
F-2.0288000000000004
sI196
F-0.8670000000000025
sI197
F15.0922
sI198
F14.650200000000002
sI199
F2.1909999999999985
sI200
F-9.141199999999996
sI201
F-18.0028
sI202
F-20.390000000000022
sI203
F-11.499199999999998
sI204
F-9.387800000000006
sI205
F-0.6153999999999988
sI206
F4.336199999999997
sI207
F9.101
sI208
F9.854000000000005
sI209
F6.0894
sI210
F-1.1056000000000004
sI211
F0.5688000000000034
sI212
F4.9060000000000015
sI213
F-1.7246000000000026
sI214
F7.239199999999999
sI215
F0.4435999999999972
sI216
F-7.245199999999997
sI217
F-5.8709999999999996
sI218
F-7.070999999999998
sI219
F-6.587400000000003
sI220
F-3.9360000000000004
sI221
F1.2677999999999998
sI222
F0.6121999999999994
sI223
F-0.02980000000000055
sI224
F8.163599999999997
sI225
F-3.4262000000000006
sI226
F-2.2789999999999995
sI227
F-0.15960000000000013
sI228
F3.133400000000001
sI229
F-3.239399999999998
sI230
F-3.0457999999999985
sI231
F-8.6128
sI232
F-4.912200000000004
sI233
F-8.8294
sI234
F-6.224000000000003
sI235
F-5.595000000000003
sI236
F-6.9264
sI237
F-3.9289999999999967
sI238
F-1.8680000000000003
sI239
F6.267599999999998
sI240
F2.6508000000000003
sI241
F-1.9897999999999987
sI242
F-0.3985999999999983
sI243
F6.366599999999998
sI244
F-0.12639999999999874
sI245
F5.417800000000005
sI246
F8.560999999999998
sI247
F6.5172000000000025
sI248
F2.7496000000000014
sI249
F0.563800000000001
sI250
F0.763999999999999
sI251
F1.7431999999999999
sI252
F2.8334
sI253
F1.6281999999999999
sI254
F8.951999999999996
sI255
F9.721799999999995
sI256
F6.4002000000000026
sI257
F-4.566
sI258
F-5.075399999999998
sI259
F-3.4644000000000013
sI260
F6.045599999999999
sI261
F0.1394000000000004
sI262
F-2.6494000000000026
sI263
F-8.852600000000002
sI264
F-7.459000000000002
sI265
F-4.0626
sI266
F-2.2687999999999993
sI267
F-5.048199999999996
sI268
F-6.366999999999999
sI269
F-0.4801999999999996
sI270
F3.1210000000000018
sI271
F2.941000000000002
sI272
F3.7574000000000005
sI273
F-0.7166000000000039
sI274
F2.882600000000002
sI275
F7.248399999999998
sI276
F8.531200000000004
sI277
F0.8245999999999976
sI278
F4.941600000000001
sI279
F5.036400000000001
sI280
F5.091800000000003
sI281
F1.086400000000002
sI282
F5.8638
sI283
F-3.75
sI284
F1.0474
sI285
F0.8685999999999994
sI286
F1.9731999999999985
sI287
F-3.380600000000002
sI288
F-2.4479999999999946
sI289
F1.5341999999999998
sI290
F4.1868
sI291
F-1.8733999999999984
sI292
F-7.093799999999996
sI293
F-12.598000000000008
sI294
F-23.848800000000008
sI295
F-31.70579999999998
sI296
F-31.101199999999984
sI297
F-37.4854
sI298
F-30.211999999999964
sI299
F-9.332200000000007
sI300
F5.506399999999999
sI301
F12.6062
sI302
F11.403999999999996
sI303
F15.793199999999995
sI304
F11.644200000000005
sI305
F0.000399999999999609
sI306
F0.6081999999999993
sI307
F-4.751399999999992
sI308
F-9.208799999999997
sI309
F4.339799999999998
sI310
F8.8328
sI311
F-3.874599999999999
sI312
F-9.957999999999997
sI313
F-9.501599999999998
sI314
F-11.4098
sI315
F-5.012600000000005
sI316
F0.8872000000000011
sI317
F10.552600000000002
sI318
F15.869799999999978
sI319
F13.229200000000008
sI320
F19.911399999999997
sI321
F-2.0
sI322
F-1.9746000000000001
sI323
F-1.8560000000000003
sI324
F-1.9003999999999999
sI325
F-1.9914
sI326
F-2.4336
sI327
F-2.0623999999999993
sI328
F-2.2714
sI329
F-1.2752000000000012
sI330
F-1.7646000000000006
sI331
F-1.1472000000000002
sI332
F0.5883999999999973
sI333
F1.8118000000000003
sI334
F1.243399999999999
sI335
F-0.9671999999999992
sI336
F-1.3970000000000011
sI337
F-3.903399999999997
sI338
F-11.371599999999997
sI339
F-5.336
sI340
F-7.137000000000004
sI341
F-8.439399999999996
sI342
F-3.3441999999999994
sI343
F-0.6171999999999996
sI344
F0.0818000000000012
sI345
F-2.0018000000000007
sI346
F-3.6406
sI347
F-3.1454000000000013
sI348
F-2.1673999999999993
sI349
F-1.3032000000000001
sI350
F-2.181
sI351
F-2.959800000000001
sI352
F-2.7568
sI353
F-2.949799999999999
sI354
F-2.0
sI355
F-1.97
sI356
F-1.8686
sI357
F-1.9336000000000002
sI358
F-1.9414000000000005
sI359
F-1.9671999999999992
sI360
F-1.8713999999999995
sI361
F-1.7739999999999998
sI362
F-1.1438000000000004
sI363
F-0.010399999999998855
sI364
F-1.843800000000001
sI365
F7.203
sI366
F2.700999999999995
sI367
F5.755800000000001
sI368
F-8.758599999999998
sI369
F-9.227599999999997
sI370
F-8.587000000000003
sI371
F-8.158999999999999
sI372
F0.13979999999999948
sI373
F-3.8992000000000013
sI374
F-4.471400000000001
sI375
F-2.3382000000000005
sI376
F-1.8181999999999985
sI377
F-1.3039999999999998
sI378
F-2.0472
sI379
F-3.2997999999999985
sI380
F-2.6471999999999993
sI381
F-1.9372000000000003
sI382
F-1.3792000000000009
sI383
F-2.1744
sI384
F-2.8426000000000005
sI385
F-2.6402000000000005
sI386
F-2.8415999999999997
sI387
F-2.0
sI388
F-1.866
sI389
F-1.4192000000000002
sI390
F-1.9066000000000005
sI391
F-1.7393999999999998
sI392
F-2.3444
sI393
F-2.985399999999999
sI394
F-4.7174000000000005
sI395
F-6.568799999999997
sI396
F-11.345999999999997
sI397
F-7.985400000000006
sI398
F2.908199999999998
sI399
F1.710400000000001
sI400
F2.402799999999999
sI401
F2.120000000000001
sI402
F-0.35239999999999866
sI403
F1.0149999999999995
sI404
F2.1882000000000006
sI405
F1.8942000000000023
sI406
F0.3823999999999983
sI407
F1.7821999999999985
sI408
F-1.8219999999999992
sI409
F-2.703799999999999
sI410
F-2.5688000000000013
sI411
F-3.4754
sI412
F-3.906199999999998
sI413
F1.4399999999999995
sI414
F2.4329999999999994
sI415
F2.638200000000001
sI416
F1.4299999999999997
sI417
F-0.21620000000000017
sI418
F-0.35319999999999974
sI419
F0.23360000000000003
sI420
F-2.0
sI421
F-0.6572
sI422
F-0.0855999999999999
sI423
F-2.3999999999999995
sI424
F0.42820000000000036
sI425
F0.08619999999999983
sI426
F-1.7430000000000005
sI427
F-13.314399999999996
sI428
F-1.1425999999999965
sI429
F-5.683800000000003
sI430
F2.1997999999999998
sI431
F4.4289999999999985
sI432
F-6.600000000000001
sI433
F-7.428400000000002
sI434
F-10.62859999999999
sI435
F-11.741400000000002
sI436
F2.3432000000000013
sI437
F1.1985999999999968
sI438
F0.9728000000000016
sI439
F10.571200000000003
sI440
F9.9418
sI441
F2.4567999999999985
sI442
F6.7148
sI443
F18.201600000000003
sI444
F9.1422
sI445
F3.828600000000005
sI446
F-2.2563999999999993
sI447
F3.285800000000001
sI448
F1.971
sI449
F-2.2856000000000005
sI450
F-3.1427999999999994
sI451
F-2.3432000000000004
sI452
F-0.057000000000000606
sI453
F-1.6703999999999977
sI454
F-1.3601999999999999
sI455
F-1.2282000000000002
sI456
F-1.5082000000000009
sI457
F-1.6250000000000013
sI458
F-1.216000000000002
sI459
F-0.5309999999999993
sI460
F0.3136
sI461
F2.2102000000000013
sI462
F4.978
sI463
F0.9450000000000022
sI464
F1.0552000000000008
sI465
F0.2956000000000003
sI466
F0.2358000000000006
sI467
F0.11040000000000044
sI468
F0.2370000000000001
sI469
F0.45019999999999777
sI470
F1.026199999999998
sI471
F0.42999999999999994
sI472
F2.3962
sI473
F5.6131999999999955
sI474
F12.763599999999986
sI475
F2.1329999999999973
sI476
F1.4315999999999995
sI477
F2.0008000000000026
sI478
F4.625800000000004
sI479
F10.417799999999994
sI480
F7.816799999999999
sI481
F-0.16600000000000026
sI482
F1.7532000000000019
sI483
F2.3690000000000007
sI484
F-5.583600000000002
sI485
F-0.8194000000000002
sI486
F-1.6589999999999976
sI487
F1.2371999999999992
sI488
F7.726799999999997
sI489
F1.2043999999999988
sI490
F-3.2267999999999972
sI491
F-0.012399999999999856
sI492
F-0.1512000000000009
sI493
F-9.835999999999999
sI494
F-5.556600000000002
sI495
F1.571199999999999
sI496
F-1.202199999999999
sI497
F0.1287999999999989
sI498
F-2.8205999999999993
sI499
F-4.686
sI500
F4.507000000000001
sI501
F-0.6474000000000001
sI502
F1.1185999999999987
sI503
F2.2456000000000005
sI504
F4.211800000000004
sI505
F-1.2198000000000004
sI506
F5.929200000000001
sI507
F5.239599999999996
sI508
F-2.5506000000000015
sI509
F-3.1004
sI510
F2.1668
sI511
F-2.6274000000000024
sI512
F0.07579999999999959
sI513
F3.208999999999998
sI514
F4.1118
sI515
F0.19980000000000098
sI516
F-4.1507999999999985
sI517
F-3.339000000000002
sI518
F-1.2278000000000004
sI519
F2.7370000000000014
sI520
F5.926199999999997
sI521
F0.3151999999999995
sI522
F0.5807999999999988
sI523
F-0.1706000000000003
sI524
F-2.454
sI525
F-5.246400000000004
sI526
F1.1273999999999993
sI527
F-4.727999999999999
sI528
F-7.4879999999999995
sI529
F6.565800000000003
sI530
F0.5123999999999982
sI531
F-2.302599999999998
sI532
F1.7435999999999994
sI533
F2.0585999999999984
sI534
F2.4935999999999967
sI535
F-0.34800000000000164
sI536
F3.748599999999999
sI537
F5.437800000000001
sI538
F-0.237800000000001
sI539
F-1.2427999999999992
sI540
F-8.2298
sI541
F-7.293600000000001
sI542
F-1.4844
sI543
F6.227800000000001
sI544
F3.094999999999998
sI545
F-0.910000000000001
sI546
F0.7701999999999992
sI547
F4.5357999999999965
sI548
F-3.605400000000001
sI549
F-2.3689999999999993
sI550
F1.6312000000000006
sI551
F1.649000000000001
sI552
F1.7807999999999984
sI553
F-4.379800000000002
sI554
F-1.5961999999999998
sI555
F3.4636000000000013
sI556
F-0.07780000000000009
sI557
F-0.26360000000000205
sI558
F0.47639999999999894
sI559
F1.8565999999999998
sI560
F-2.514600000000002
sI561
F7.421199999999994
sI562
F5.815600000000004
sI563
F3.5608000000000013
sI564
F1.6818000000000004
sI565
F-5.2304
sI566
F1.404599999999999
sI567
F1.7874000000000014
sI568
F6.225799999999994
sI569
F3.3071999999999964
sI570
F2.2310000000000016
sI571
F5.507200000000001
sI572
F4.676399999999998
sI573
F2.1794
sI574
F6.532999999999999
sI575
F7.987400000000003
sI576
F2.7639999999999976
sI577
F6.172800000000001
sI578
F-6.0
sI579
F-6.0
sI580
F10.0
sI581
F1.3999999999999995
sI582
F-1.0000000000000002
sI583
F1.8000000000000016
sI584
F0.36579999999999935
sI585
F8.0
sI586
F8.641199999999989
sI587
F1.8698000000000028
sI588
F-7.512200000000003
sI589
F-9.0246
sI590
F-12.000200000000007
sI591
F-5.428599999999998
sI592
F-0.9660000000000013
sI593
F-0.6470000000000008
sI594
F4.178
sI595
F1.6355999999999986
sI596
F10.171999999999997
sI597
F7.989400000000005
sI598
F-7.800000000000001
sI599
F-7.782400000000001
sI600
F-10.992600000000007
sI601
F-6.7383999999999995
sI602
F2.2584000000000004
sI603
F-0.8105999999999992
sI604
F4.029800000000003
sI605
F0.8224000000000027
sI606
F2.2015999999999956
sI607
F3.5473999999999988
sI608
F-1.7101999999999982
sI609
F3.552600000000002
sI610
F-4.2373999999999965
sI611
F9.382000000000005
sI612
F12.328399999999995
sI613
F8.581600000000005
sI614
F8.263999999999996
sI615
F7.851799999999995
sI616
F4.395800000000005
sI617
F4.392800000000006
ssS'_iterations'
p8
I5
sS'_learning_rate'
p9
F1.0
sS'_finalw'
p10
(dp11
I1
F702.6058000000043
sI2
F-2887.2223999999974
sI3
F-1515.2534
sI4
F1772.5258000000092
sI5
F-2975.786199999989
sI6
F-5870.1744000000035
sI7
F-13330.768399999899
sI8
F-4839.155199999958
sI9
F-8142.534199999956
sI10
F-6513.726399999954
sI11
F-7849.141800000063
sI12
F-7023.794200000039
sI13
F-4801.274000000014
sI14
F-2064.763800000005
sI15
F-1107.5248000000163
sI16
F-541.3366000000013
sI17
F-3838.750999999984
sI18
F-378.2539999999877
sI19
F2508.677000000017
sI20
F742.9565999999973
sI21
F4399.857599999959
sI22
F4504.357400000027
sI23
F5064.365400000005
sI24
F122.5497999999995
sI25
F-2204.566000000013
sI26
F811.6114000000064
sI27
F-678.3848000000036
sI28
F-2166.0552000000057
sI29
F3800.2001999999825
sI30
F2249.5460000000035
sI31
F3033.1750000000006
sI32
F1289.5467999999955
sI33
F-2029.962399999997
sI34
F-2215.680999999991
sI35
F-2356.6675999999957
sI36
F-3273.8999999999946
sI37
F7795.553199999966
sI38
F6.53800000000289
sI39
F-11997.048200000087
sI40
F-5349.429199999987
sI41
F-5807.093599999989
sI42
F-261.92179999999405
sI43
F-426.78879999999594
sI44
F-6397.154799999996
sI45
F-7663.2983999999915
sI46
F177.43959999999612
sI47
F869.4445999999974
sI48
F-5232.327200000025
sI49
F-3030.044000000021
sI50
F-4416.042399999988
sI51
F-9165.386600000098
sI52
F-684.2515999999964
sI53
F310.78880000000566
sI54
F6085.858400000001
sI55
F4076.5744000000172
sI56
F-1413.8181999999922
sI57
F-193.53719999999745
sI58
F217.99880000000044
sI59
F-1568.0642
sI60
F-3786.788399999969
sI61
F-2158.896000000014
sI62
F-4700.5433999999295
sI63
F-6791.257600000034
sI64
F-1227.9869999999908
sI65
F-2118.56820000001
sI66
F-2008.2106000000113
sI67
F-3916.2251999999717
sI68
F-1123.2524000000055
sI69
F13969.561199999926
sI70
F2128.501999999982
sI71
F-11273.029600000049
sI72
F-14044.600599999889
sI73
F-21182.31460000032
sI74
F-17547.676600000083
sI75
F-17475.54579999988
sI76
F-15872.093999999963
sI77
F-2270.774799999985
sI78
F3658.7012000000036
sI79
F7126.459199999978
sI80
F7565.612999999997
sI81
F-3753.56519999998
sI82
F-3733.2845999999868
sI83
F-7480.27119999994
sI84
F-3624.477399999981
sI85
F2221.228599999976
sI86
F7423.6639999999625
sI87
F1355.507199999998
sI88
F-350.1690000000009
sI89
F-1285.0486000000033
sI90
F-5414.947200000058
sI91
F-4856.435800000067
sI92
F-945.0012000000027
sI93
F275.01320000000413
sI94
F49.7618
sI95
F7894.935800000033
sI96
F9429.566400000025
sI97
F-5400.260399999997
sI98
F-2922.7470000000067
sI99
F-4806.589200000007
sI100
F678.2863999999969
sI101
F12886.790600000078
sI102
F-469.32439999999815
sI103
F-13674.765199999852
sI104
F-17363.012599999784
sI105
F-33104.71640000009
sI106
F-44542.74419999962
sI107
F-39855.36220000009
sI108
F-22118.979800000165
sI109
F4609.5016000000005
sI110
F15186.295200000042
sI111
F10986.302600000025
sI112
F11053.19459999994
sI113
F6186.890000000001
sI114
F1588.6752000000083
sI115
F-5141.23420000001
sI116
F-6218.869200000022
sI117
F7319.1038000000135
sI118
F16107.131399999891
sI119
F12975.53500000006
sI120
F5440.769399999933
sI121
F6195.179999999909
sI122
F8763.774200000033
sI123
F4409.089199999982
sI124
F-4541.079200000014
sI125
F-3350.3470000000293
sI126
F-6433.190000000024
sI127
F751.0187999999998
sI128
F2883.9018000000183
sI129
F-6336.9326000000165
sI130
F-4604.527600000001
sI131
F-4423.407199999974
sI132
F2908.7349999999815
sI133
F16784.954599999914
sI134
F7339.741200000011
sI135
F-2415.170799999997
sI136
F-11891.692199999974
sI137
F-36975.61839999998
sI138
F-41300.68619999969
sI139
F-36107.720999999954
sI140
F-29792.983400000012
sI141
F-11180.189200000044
sI142
F-362.1168000000146
sI143
F10886.711799999968
sI144
F8431.64079999998
sI145
F4807.740399999993
sI146
F-1330.5976000000057
sI147
F-5143.218999999969
sI148
F-4430.986600000029
sI149
F11710.849199999957
sI150
F9586.027400000117
sI151
F2117.8544000000197
sI152
F-13258.169199999904
sI153
F-1600.7073999999918
sI154
F11772.591000000035
sI155
F16405.923799999866
sI156
F4362.07820000001
sI157
F-9903.54599999999
sI158
F-15411.726199999946
sI159
F-13546.820599999988
sI160
F-9981.803600000017
sI161
F-7691.55599999997
sI162
F-2636.540800000009
sI163
F4533.217600000019
sI164
F5994.2315999998755
sI165
F23273.08780000007
sI166
F30773.518599999854
sI167
F16498.837000000036
sI168
F-12408.21519999983
sI169
F-29497.694999999974
sI170
F-38318.13199999973
sI171
F-34394.0110000001
sI172
F-25502.02259999992
sI173
F-12431.948799999982
sI174
F-2848.015199999999
sI175
F13834.523399999956
sI176
F15675.529400000101
sI177
F13312.78279999994
sI178
F5742.3333999999895
sI179
F-967.166400000018
sI180
F-7941.618999999965
sI181
F-3656.7486000000085
sI182
F8327.074400000041
sI183
F5533.143800000008
sI184
F-7867.089000000027
sI185
F-6258.800800000029
sI186
F7416.844999999952
sI187
F11710.833800000128
sI188
F-206.25219999999936
sI189
F-7780.009400000079
sI190
F-10360.62140000005
sI191
F-9774.4518
sI192
F-7441.773400000026
sI193
F-5956.903400000021
sI194
F-6063.220599999983
sI195
F-2409.2253999999903
sI196
F-722.5976000000123
sI197
F17686.65319999991
sI198
F16356.928200000091
sI199
F-1233.958600000022
sI200
F-17354.43239999998
sI201
F-31323.454200000288
sI202
F-35033.15539999965
sI203
F-21387.881400000027
sI204
F-14044.059999999994
sI205
F810.0028000000049
sI206
F7999.170599999972
sI207
F14252.50079999994
sI208
F15699.156400000027
sI209
F6740.6497999999665
sI210
F-6182.893599999965
sI211
F-5232.060000000023
sI212
F2105.0618
sI213
F-718.9064000000202
sI214
F8667.812000000078
sI215
F1768.1411999999948
sI216
F-8466.247999999925
sI217
F-4734.017600000009
sI218
F-4324.821599999995
sI219
F-6201.6083999999755
sI220
F-2886.54300000002
sI221
F1840.0565999999756
sI222
F991.1114000000026
sI223
F3091.4718000000144
sI224
F12645.263799999975
sI225
F-1886.3559999999864
sI226
F1082.235999999992
sI227
F3672.2943999999816
sI228
F3699.8255999999924
sI229
F-4334.778599999988
sI230
F-5809.6920000000255
sI231
F-13440.256000000052
sI232
F-7382.771799999946
sI233
F-13109.93780000009
sI234
F-10963.858399999988
sI235
F-6222.61299999998
sI236
F-8915.748399999939
sI237
F-4596.8801999999805
sI238
F-3185.594199999997
sI239
F5712.034999999998
sI240
F1407.8142000000123
sI241
F-3993.551800000015
sI242
F-1698.9371999999794
sI243
F6099.90360000003
sI244
F1658.9751999999758
sI245
F8002.025400000038
sI246
F10185.171800000006
sI247
F6367.754799999972
sI248
F1221.143400000003
sI249
F-1138.9223999999988
sI250
F1358.2265999999995
sI251
F403.32379999999876
sI252
F5345.554399999982
sI253
F3227.392200000032
sI254
F11459.212200000105
sI255
F12515.702999999834
sI256
F8302.048600000055
sI257
F-4448.4367999999895
sI258
F-5435.476800000044
sI259
F-6001.773400000084
sI260
F6024.876200000005
sI261
F-979.2933999999956
sI262
F-4363.099600000038
sI263
F-15382.056999999902
sI264
F-13288.92160000002
sI265
F-8201.771200000088
sI266
F-6968.688199999962
sI267
F-8195.925200000029
sI268
F-10106.107600000036
sI269
F-1266.752399999997
sI270
F2826.764399999997
sI271
F1472.6242000000027
sI272
F1854.0214000000046
sI273
F-1813.9836000000262
sI274
F1535.222000000006
sI275
F9589.411800000064
sI276
F12086.250800000022
sI277
F1872.6990000000117
sI278
F5485.663800000033
sI279
F3148.255400000001
sI280
F725.5646000000035
sI281
F-4835.859199999966
sI282
F6155.834999999971
sI283
F-5401.649600000035
sI284
F281.7150000000003
sI285
F478.25859999999625
sI286
F455.4449999999981
sI287
F-4728.825400000025
sI288
F-5637.556799999989
sI289
F1270.453000000022
sI290
F5800.121599999974
sI291
F-404.30039999998354
sI292
F-7849.416599999923
sI293
F-19789.793000000078
sI294
F-31255.567400000175
sI295
F-45486.132599999895
sI296
F-44048.389800000245
sI297
F-53931.13160000039
sI298
F-47687.727
sI299
F-21771.411600000163
sI300
F816.1629999999972
sI301
F14415.560599999882
sI302
F13070.23180000004
sI303
F22764.223800000153
sI304
F19873.948400000234
sI305
F3206.4484000000057
sI306
F1375.030000000003
sI307
F-7830.05779999998
sI308
F-6960.584400000029
sI309
F7566.233200000003
sI310
F13869.158799999894
sI311
F-774.3490000000007
sI312
F-10086.108400000028
sI313
F-10664.412000000068
sI314
F-14589.816000000044
sI315
F-5350.87140000003
sI316
F2063.3410000000104
sI317
F13966.958800000019
sI318
F21952.8809999998
sI319
F20268.90620000007
sI320
F27602.34319999995
sI321
F-2285.0
sI322
F-2284.4158
sI323
F-2088.26720000005
sI324
F-2182.7028000000455
sI325
F-2240.6679999999624
sI326
F-2856.763199999952
sI327
F-2226.6828000000014
sI328
F-1989.8861999999856
sI329
F-1126.9826000000014
sI330
F-1941.1382000000106
sI331
F-1235.160800000004
sI332
F2745.813599999995
sI333
F5402.984200000003
sI334
F1934.4591999999993
sI335
F-744.7723999999968
sI336
F-787.9345999999995
sI337
F-4968.020400000012
sI338
F-13068.049000000025
sI339
F-8629.581600000041
sI340
F-10293.387799999968
sI341
F-10173.689399999883
sI342
F-4279.723200000023
sI343
F-569.4595999999952
sI344
F699.932999999999
sI345
F-1106.3224000000098
sI346
F-3387.517400000021
sI347
F-4070.056399999996
sI348
F-2484.53760000002
sI349
F-1333.5428000000156
sI350
F-2928.064800000045
sI351
F-4028.4587999999526
sI352
F-3805.397200000046
sI353
F-4006.967799999962
sI354
F-2285.0
sI355
F-2284.3099999999954
sI356
F-2152.0232000000547
sI357
F-2229.94479999996
sI358
F-2155.526199999985
sI359
F-2166.8434000000134
sI360
F-1984.8001999999983
sI361
F-1524.5723999999834
sI362
F-415.3914000000009
sI363
F1447.4618000000128
sI364
F-2112.8106000000307
sI365
F9613.491399999966
sI366
F7911.787799999993
sI367
F7432.856600000045
sI368
F-10287.424200000027
sI369
F-12519.899399999877
sI370
F-9175.289600000035
sI371
F-6877.717199999956
sI372
F760.5502000000033
sI373
F-4110.203599999988
sI374
F-3850.356000000017
sI375
F-1852.2106000000058
sI376
F-1776.866199999984
sI377
F-655.8012000000034
sI378
F-1176.7032000000004
sI379
F-2974.1170000000184
sI380
F-3040.5838000000094
sI381
F-2006.5111999999833
sI382
F-1178.9042000000136
sI383
F-2740.8423999999964
sI384
F-3772.018999999978
sI385
F-3548.7285999999417
sI386
F-3760.4972000001076
sI387
F-2285.0
sI388
F-2281.9179999999997
sI389
F-2023.8211999999821
sI390
F-2618.3943999999615
sI391
F-2076.670199999991
sI392
F-2830.4156000000157
sI393
F-4061.2481999999814
sI394
F-4231.534599999995
sI395
F-5321.308199999991
sI396
F-9304.342600000005
sI397
F-9807.803000000082
sI398
F2400.4301999999857
sI399
F1097.943199999998
sI400
F2488.875799999998
sI401
F1888.041399999992
sI402
F-906.4321999999999
sI403
F1743.5861999999947
sI404
F2652.9701999999947
sI405
F3000.0592000000224
sI406
F476.12340000000034
sI407
F1836.1332000000061
sI408
F-2301.685999999999
sI409
F-4227.160199999998
sI410
F-4289.162200000017
sI411
F-3831.832600000015
sI412
F-4782.22039999999
sI413
F1602.0215999999723
sI414
F2525.0850000000273
sI415
F3838.6027999999283
sI416
F1229.5997999999952
sI417
F-836.8564000000198
sI418
F-677.9472000000238
sI419
F231.59919999999167
sI420
F-2285.0
sI421
F-2254.1156000000024
sI422
F-753.710599999991
sI423
F-3159.1849999999395
sI424
F441.96520000000777
sI425
F-1019.5024000000251
sI426
F-1132.570600000014
sI427
F-16282.59280000016
sI428
F-3363.7802000000156
sI429
F-15461.946000000364
sI430
F3094.5731999998525
sI431
F6310.782600000065
sI432
F-8092.451999999986
sI433
F-10152.653600000012
sI434
F-14691.065800000113
sI435
F-14715.774600000015
sI436
F241.9469999999968
sI437
F383.02260000000575
sI438
F4516.106599999969
sI439
F22102.698800000086
sI440
F8998.847399999962
sI441
F-2414.160000000017
sI442
F8138.779800000028
sI443
F19737.178200000282
sI444
F8151.772800000037
sI445
F8974.937600000027
sI446
F-4231.419799999989
sI447
F4895.986399999969
sI448
F3862.413999999989
sI449
F-4226.692400000012
sI450
F-5060.785199999867
sI451
F-2620.80079999991
sI452
F-154.3638000000057
sI453
F-4198.989000000018
sI454
F-3686.9225999999876
sI455
F-3336.9204000000077
sI456
F-3689.0378000000314
sI457
F-3796.8772000000026
sI458
F-3154.1492000000153
sI459
F-2217.0103999999856
sI460
F-827.9063999999976
sI461
F1154.1382000000078
sI462
F2896.1320000000055
sI463
F105.44500000000343
sI464
F135.95019999999727
sI465
F-414.1285999999942
sI466
F-312.16359999999327
sI467
F-51.71060000000127
sI468
F599.7832000000056
sI469
F1128.9359999999997
sI470
F2100.881399999975
sI471
F2121.7656000000075
sI472
F3432.581799999997
sI473
F8755.058799999997
sI474
F14478.77260000005
sI475
F3194.309200000007
sI476
F1035.7959999999973
sI477
F5573.9024
sI478
F6449.444600000041
sI479
F15303.765200000067
sI480
F3123.449399999995
sI481
F3138.4400000000046
sI482
F4676.217399999969
sI483
F3040.842399999994
sI484
F-3636.4812000000043
sI485
F-535.2079999999982
sI486
F-189.7979999999961
sI487
F2662.5251999999778
sI488
F10607.317799999984
sI489
F936.1581999999983
sI490
F-1976.8319999999849
sI491
F-962.9588000000047
sI492
F-2225.288399999982
sI493
F-13704.856799999992
sI494
F-7829.417400000031
sI495
F2943.1637999999957
sI496
F-738.9936000000014
sI497
F630.2617999999928
sI498
F-2347.116599999996
sI499
F-5224.86039999995
sI500
F6116.4571999999835
sI501
F789.7877999999954
sI502
F1263.5877999999987
sI503
F4261.244800000001
sI504
F5843.502000000062
sI505
F1603.257799999999
sI506
F9923.728200000087
sI507
F7177.96260000002
sI508
F-2017.8562000000018
sI509
F-2965.0295999999944
sI510
F2432.4249999999843
sI511
F-2946.576799999985
sI512
F4603.16240000001
sI513
F5124.610800000025
sI514
F4918.0140000000665
sI515
F-112.26059999999069
sI516
F-6609.04379999996
sI517
F-4447.393199999937
sI518
F-2326.4018000000306
sI519
F3262.5250000000137
sI520
F6744.060599999954
sI521
F-79.04839999999624
sI522
F1118.035400000004
sI523
F-519.3586000000024
sI524
F-2174.718599999994
sI525
F-6920.823600000027
sI526
F-554.214799999993
sI527
F-2063.3388000000064
sI528
F-7248.827999999974
sI529
F8569.961000000052
sI530
F3471.2892000000147
sI531
F-1725.0900000000183
sI532
F804.1662000000103
sI533
F2841.466999999996
sI534
F3337.2723999999594
sI535
F-1029.635000000003
sI536
F3686.135000000003
sI537
F7107.344399999952
sI538
F37.138199999998335
sI539
F-90.57220000000969
sI540
F-9058.735400000003
sI541
F-8143.136600000002
sI542
F-403.65620000000155
sI543
F8470.570200000066
sI544
F3016.8128000000024
sI545
F632.8837999999965
sI546
F2524.950000000001
sI547
F4446.306399999951
sI548
F-4019.549799999992
sI549
F-4270.69700000003
sI550
F428.92140000000023
sI551
F1029.517799999996
sI552
F2022.1252000000138
sI553
F-6709.723400000031
sI554
F-455.8585999999972
sI555
F5115.524799999934
sI556
F-879.8031999999969
sI557
F-228.98300000000094
sI558
F1596.6887999999967
sI559
F4650.8036000000375
sI560
F-2886.7682000000073
sI561
F7851.322399999943
sI562
F7603.588600000004
sI563
F4380.5988000000025
sI564
F1473.6232000000016
sI565
F-4520.263999999953
sI566
F356.0553999999957
sI567
F2596.7326000000044
sI568
F6905.212999999981
sI569
F6137.028199999956
sI570
F6049.181199999994
sI571
F6652.051399999991
sI572
F5700.237600000026
sI573
F3111.270399999988
sI574
F9035.968200000068
sI575
F12053.334000000099
sI576
F7161.795599999959
sI577
F7260.838800000066
sI578
F-3099.0
sI579
F-4577.0
sI580
F5391.0
sI581
F2595.199999999981
sI582
F-1121.4000000000294
sI583
F831.200000000003
sI584
F942.097600000002
sI585
F14687.0
sI586
F11808.166399999865
sI587
F1533.0321999999958
sI588
F-12476.570200000033
sI589
F-14641.25759999991
sI590
F-16452.19060000003
sI591
F-8897.285999999986
sI592
F-4685.55299999996
sI593
F-321.0965999999949
sI594
F6488.014200000033
sI595
F1866.5057999999913
sI596
F9457.065399999978
sI597
F8444.811399999935
sI598
F-7725.275400000009
sI599
F-10143.79540000007
sI600
F-14128.645600000014
sI601
F-7667.537199999967
sI602
F2802.8190000000122
sI603
F1016.1413999999954
sI604
F6699.646799999962
sI605
F3345.6435999999994
sI606
F5106.584600000001
sI607
F3689.7154000000055
sI608
F-737.5461999999933
sI609
F2693.1968
sI610
F-3436.910200000028
sI611
F11937.407200000036
sI612
F13764.486599999962
sI613
F11692.032600000051
sI614
F10803.137199999917
sI615
F10619.601600000005
sI616
F5162.427999999969
sI617
F7199.150600000087
ssb.