ccopy_reg
_reconstructor
p0
(cPerceptronAlgos
AvgPerceptron
p1
c__builtin__
object
p2
Ntp3
Rp4
(dp5
S'_w'
p6
(dp7
I1
F41.0
sI2
F-7.0
sI3
F-459.0
sI4
F-0.33333333
sI5
F2.7755575615628914e-17
sI6
F-115.83333449299997
sI7
F-242.720848289
sI8
F-95.00000820600003
sI9
F-396.53352756099986
sI10
F255.77777244299992
sI11
F330.1111096
sI12
F-144.22221066000003
sI13
F581.4444499399997
sI14
F223.00000586000004
sI15
F-1199.9999992300006
sI16
F977.0000015600002
sI17
F152.55557174
sI18
F-59.70449211
sI19
F349.7517435
ssS'_iterations'
p8
I5
sS'_learning_rate'
p9
F1.0
sS'_finalw'
p10
(dp11
I1
F-57896.0
sI2
F80626.0
sI3
F-835740.0
sI4
F-273.22221948999737
sI5
F10.666666560000154
sI6
F-214181.7826014973
sI7
F-526473.7041953052
sI8
F-147675.51740862048
sI9
F-869147.9672806842
sI10
F490149.1034386551
sI11
F640262.6684677791
sI12
F-274502.9793259683
sI13
F1104687.6735279253
sI14
F450340.67207267915
sI15
F-2293956.331346523
sI16
F1843615.6728810058
sI17
F281110.3534131325
sI18
F-109593.15114728006
sI19
F639516.0993798921
ssb.